(dp0
S'times'
p1
(lp2
(lp3
F6.47
aF13.3
aF19.340000000000003
aF23.78
aF24.519999999999982
aF24.110000000000014
aF18.439999999999998
aF12.529999999999973
aF5.7000000000000455
aF3.7199999999999136
aF2.480000000000018
aF1.669999999999959
aF1.5499999999999545
aF1.580000000000041
aF1.400000000000091
aF1.6000000000000227
aF2.0
aF1.4700000000000273
aF1.5199999999999818
aF1.490000000000009
aF1.5599999999999454
aF1.5199999999999818
aF1.4700000000000273
aF1.4099999999999682
aa(lp4
F7.23
aF14.270000000000003
aF20.519999999999996
aF23.72
aF25.29000000000002
aF25.319999999999993
aF19.470000000000027
aF13.610000000000014
aF8.07000000000005
aF4.269999999999982
aF3.0299999999999727
aF4.159999999999968
aF3.9500000000000455
aF2.7799999999999727
aF2.4799999999999045
aF4.089999999999918
aF2.439999999999941
aF2.07000000000005
aF2.0299999999999727
aF1.9100000000000819
aF2.2899999999999636
aF1.9499999999999318
aF2.080000000000041
aF1.9899999999998954
aa(lp5
F6.630000000000003
aF12.689999999999998
aF19.310000000000016
aF22.610000000000014
aF22.670000000000016
aF23.590000000000032
aF17.77000000000004
aF8.649999999999977
aF4.350000000000023
aF3.089999999999918
aF2.75
aF1.8899999999999864
aF1.9700000000000273
aF1.92999999999995
aF3.8999999999999773
aF2.8999999999999773
aF1.8599999999999
aF1.8999999999999773
aF1.8500000000000227
aF1.9500000000000455
aF1.6200000000000045
aF1.9400000000000546
aF1.8599999999999
aF1.8700000000000045
aa(lp6
F7.149999999999999
aF13.220000000000013
aF19.45999999999998
aF22.409999999999968
aF23.019999999999982
aF24.549999999999955
aF19.360000000000014
aF13.0
aF6.649999999999977
aF4.100000000000023
aF3.310000000000059
aF3.1900000000000546
aF2.8500000000000227
aF3.0499999999999545
aF2.810000000000059
aF6.889999999999986
aF2.82000000000005
aF2.5400000000000773
aF2.5200000000000955
aF2.4200000000000728
aF2.3999999999999773
aF2.5299999999999727
aF2.550000000000068
aF2.490000000000009
aasS'names'
p7
(lp8
S'No dose naive'
p9
aS'No dose conjugate'
p10
aS'Naive proposal'
p11
aS'Conjugate proposal'
p12
asS'n_effs'
p13
(lp14
(lp15
F15.269780545749809
aF138.90299258171746
aF183.34506641274996
aF131.74152944468364
aF214.06745165540676
aF129.911185183614
aF207.42875737228127
aF228.43317258672832
aF45.43204291800133
aF121.83127642143607
aF221.9842921956505
aF74.02751792445635
aF179.13566306956432
aF211.22778139777583
aF175.30274020516094
aF213.13954875508315
aF197.87294009681867
aF179.23873580567965
aF206.4993738296402
aF206.8822321285501
aF95.94219207072952
aF169.43179136298033
aF188.16364223850567
aF186.42476949104923
aa(lp16
F38.26133807610803
aF836.6162786510394
aF865.183581733481
aF623.6791101309519
aF877.2539703975141
aF738.4506743675926
aF819.7957342837948
aF866.6437903688346
aF547.691709422811
aF439.20369561414753
aF878.7007001859585
aF557.1924640208443
aF550.7315981733001
aF779.1412441987612
aF567.222537703933
aF691.2113946360072
aF405.22382503899416
aF605.1282924424303
aF785.0268427723674
aF540.4480958709781
aF600.7730155523625
aF586.473015489861
aF848.5175096534994
aF839.4035671865348
aa(lp17
F1.0172448626211605
aF1.0000000000000029
aF1.0592735301560692
aF1.0000562231579866
aF1.0
aF1.0139695089725422
aF1.0000000000024243
aF1.3286486331727434
aF68.50054411637639
aF134.4261750667321
aF223.45162107624515
aF68.69189758202172
aF194.04252018395798
aF234.83296782177536
aF188.51434556550453
aF205.7552758798129
aF179.45311811680693
aF194.61255673041583
aF187.34060040456143
aF187.18301298683
aF103.18589667571133
aF174.84412344533186
aF191.47939675275057
aF195.91553062630942
aa(lp18
F11.845450229751775
aF3.9967006925314483
aF1.114815567672063
aF1.1001403583416716
aF1.3552223701840804
aF1.000000076352119
aF1.000000225445304
aF853.4456174835545
aF534.434926400862
aF506.4879885628767
aF840.6581381878412
aF613.4388058396413
aF591.655065895514
aF786.7946399307893
aF511.7706060303391
aF683.8535678993488
aF386.73060467637634
aF734.7665094955987
aF861.500929959422
aF615.6157052760027
aF610.4681275871378
aF534.9696131579946
aF875.1279922192185
aF876.393151821507
aas.